; ModuleID = '17/704.c'
source_filename = "17/704.c"
target datalayout = "e-m:e-p270:32:32-p271:32:32-p272:64:64-i64:64-f80:128-n8:16:32:64-S128"
target triple = "x86_64-pc-linux-gnu"

@.str = private unnamed_addr constant [3 x i8] c"%c\00", align 1
@.str.1 = private unnamed_addr constant [2 x i8] c"\0A\00", align 1
@.str.2 = private unnamed_addr constant [2 x i8] c"$\00", align 1
@.str.3 = private unnamed_addr constant [2 x i8] c"?\00", align 1
@.str.4 = private unnamed_addr constant [2 x i8] c" \00", align 1

; Function Attrs: noinline nounwind uwtable
define dso_local i32 @main() #0 {
  %1 = alloca i32, align 4
  %2 = alloca [100 x [101 x i8]], align 16
  %3 = alloca [100 x [101 x i8]], align 16
  %4 = alloca i8, align 1
  %5 = alloca i8, align 1
  %6 = alloca i32, align 4
  %7 = alloca i32, align 4
  %8 = alloca i32, align 4
  store i32 0, i32* %1, align 4
  store i8 40, i8* %4, align 1
  store i8 41, i8* %5, align 1
  store i32 0, i32* %8, align 4
  br label %9

9:                                                ; preds = %191, %0
  %10 = load i32, i32* %8, align 4
  %11 = icmp sle i32 %10, 20
  br i1 %11, label %12, label %194

12:                                               ; preds = %9
  store i32 0, i32* %6, align 4
  br label %13

13:                                               ; preds = %23, %12
  %14 = load i32, i32* %6, align 4
  %15 = icmp slt i32 %14, 101
  br i1 %15, label %16, label %26

16:                                               ; preds = %13
  %17 = load i32, i32* %8, align 4
  %18 = sext i32 %17 to i64
  %19 = getelementptr inbounds [100 x [101 x i8]], [100 x [101 x i8]]* %2, i64 0, i64 %18
  %20 = load i32, i32* %6, align 4
  %21 = sext i32 %20 to i64
  %22 = getelementptr inbounds [101 x i8], [101 x i8]* %19, i64 0, i64 %21
  store i8 0, i8* %22, align 1
  br label %23

23:                                               ; preds = %16
  %24 = load i32, i32* %6, align 4
  %25 = add nsw i32 %24, 1
  store i32 %25, i32* %6, align 4
  br label %13

26:                                               ; preds = %13
  %27 = load i32, i32* %8, align 4
  %28 = sext i32 %27 to i64
  %29 = getelementptr inbounds [100 x [101 x i8]], [100 x [101 x i8]]* %2, i64 0, i64 %28
  %30 = getelementptr inbounds [101 x i8], [101 x i8]* %29, i64 0, i64 0
  %31 = call i32 (i8*, ...) bitcast (i32 (...)* @gets to i32 (i8*, ...)*)(i8* %30)
  %32 = load i32, i32* %8, align 4
  %33 = sext i32 %32 to i64
  %34 = getelementptr inbounds [100 x [101 x i8]], [100 x [101 x i8]]* %3, i64 0, i64 %33
  %35 = getelementptr inbounds [101 x i8], [101 x i8]* %34, i64 0, i64 0
  %36 = load i32, i32* %8, align 4
  %37 = sext i32 %36 to i64
  %38 = getelementptr inbounds [100 x [101 x i8]], [100 x [101 x i8]]* %2, i64 0, i64 %37
  %39 = getelementptr inbounds [101 x i8], [101 x i8]* %38, i64 0, i64 0
  %40 = call i8* @strcpy(i8* %35, i8* %39) #3
  store i32 0, i32* %6, align 4
  br label %41

41:                                               ; preds = %105, %26
  %42 = load i32, i32* %6, align 4
  %43 = icmp slt i32 %42, 101
  br i1 %43, label %44, label %54

44:                                               ; preds = %41
  %45 = load i32, i32* %8, align 4
  %46 = sext i32 %45 to i64
  %47 = getelementptr inbounds [100 x [101 x i8]], [100 x [101 x i8]]* %2, i64 0, i64 %46
  %48 = load i32, i32* %6, align 4
  %49 = sext i32 %48 to i64
  %50 = getelementptr inbounds [101 x i8], [101 x i8]* %47, i64 0, i64 %49
  %51 = load i8, i8* %50, align 1
  %52 = sext i8 %51 to i32
  %53 = icmp ne i32 %52, 0
  br label %54

54:                                               ; preds = %44, %41
  %55 = phi i1 [ false, %41 ], [ %53, %44 ]
  br i1 %55, label %56, label %108

56:                                               ; preds = %54
  %57 = load i32, i32* %8, align 4
  %58 = sext i32 %57 to i64
  %59 = getelementptr inbounds [100 x [101 x i8]], [100 x [101 x i8]]* %2, i64 0, i64 %58
  %60 = load i32, i32* %6, align 4
  %61 = sext i32 %60 to i64
  %62 = getelementptr inbounds [101 x i8], [101 x i8]* %59, i64 0, i64 %61
  %63 = load i8, i8* %62, align 1
  %64 = sext i8 %63 to i32
  %65 = load i8, i8* %5, align 1
  %66 = sext i8 %65 to i32
  %67 = icmp eq i32 %64, %66
  br i1 %67, label %68, label %104

68:                                               ; preds = %56
  %69 = load i32, i32* %6, align 4
  %70 = sub nsw i32 %69, 1
  store i32 %70, i32* %7, align 4
  br label %71

71:                                               ; preds = %100, %68
  %72 = load i32, i32* %7, align 4
  %73 = icmp sge i32 %72, 0
  br i1 %73, label %74, label %103

74:                                               ; preds = %71
  %75 = load i32, i32* %8, align 4
  %76 = sext i32 %75 to i64
  %77 = getelementptr inbounds [100 x [101 x i8]], [100 x [101 x i8]]* %2, i64 0, i64 %76
  %78 = load i32, i32* %7, align 4
  %79 = sext i32 %78 to i64
  %80 = getelementptr inbounds [101 x i8], [101 x i8]* %77, i64 0, i64 %79
  %81 = load i8, i8* %80, align 1
  %82 = sext i8 %81 to i32
  %83 = load i8, i8* %4, align 1
  %84 = sext i8 %83 to i32
  %85 = icmp eq i32 %82, %84
  br i1 %85, label %86, label %99

86:                                               ; preds = %74
  %87 = load i32, i32* %8, align 4
  %88 = sext i32 %87 to i64
  %89 = getelementptr inbounds [100 x [101 x i8]], [100 x [101 x i8]]* %2, i64 0, i64 %88
  %90 = load i32, i32* %7, align 4
  %91 = sext i32 %90 to i64
  %92 = getelementptr inbounds [101 x i8], [101 x i8]* %89, i64 0, i64 %91
  store i8 1, i8* %92, align 1
  %93 = load i32, i32* %8, align 4
  %94 = sext i32 %93 to i64
  %95 = getelementptr inbounds [100 x [101 x i8]], [100 x [101 x i8]]* %2, i64 0, i64 %94
  %96 = load i32, i32* %6, align 4
  %97 = sext i32 %96 to i64
  %98 = getelementptr inbounds [101 x i8], [101 x i8]* %95, i64 0, i64 %97
  store i8 1, i8* %98, align 1
  br label %103

99:                                               ; preds = %74
  br label %100

100:                                              ; preds = %99
  %101 = load i32, i32* %7, align 4
  %102 = add nsw i32 %101, -1
  store i32 %102, i32* %7, align 4
  br label %71

103:                                              ; preds = %86, %71
  br label %104

104:                                              ; preds = %103, %56
  br label %105

105:                                              ; preds = %104
  %106 = load i32, i32* %6, align 4
  %107 = add nsw i32 %106, 1
  store i32 %107, i32* %6, align 4
  br label %41

108:                                              ; preds = %54
  store i32 0, i32* %6, align 4
  br label %109

109:                                              ; preds = %134, %108
  %110 = load i32, i32* %6, align 4
  %111 = icmp slt i32 %110, 101
  br i1 %111, label %112, label %122

112:                                              ; preds = %109
  %113 = load i32, i32* %8, align 4
  %114 = sext i32 %113 to i64
  %115 = getelementptr inbounds [100 x [101 x i8]], [100 x [101 x i8]]* %3, i64 0, i64 %114
  %116 = load i32, i32* %6, align 4
  %117 = sext i32 %116 to i64
  %118 = getelementptr inbounds [101 x i8], [101 x i8]* %115, i64 0, i64 %117
  %119 = load i8, i8* %118, align 1
  %120 = sext i8 %119 to i32
  %121 = icmp ne i32 %120, 0
  br label %122

122:                                              ; preds = %112, %109
  %123 = phi i1 [ false, %109 ], [ %121, %112 ]
  br i1 %123, label %124, label %137

124:                                              ; preds = %122
  %125 = load i32, i32* %8, align 4
  %126 = sext i32 %125 to i64
  %127 = getelementptr inbounds [100 x [101 x i8]], [100 x [101 x i8]]* %3, i64 0, i64 %126
  %128 = load i32, i32* %6, align 4
  %129 = sext i32 %128 to i64
  %130 = getelementptr inbounds [101 x i8], [101 x i8]* %127, i64 0, i64 %129
  %131 = load i8, i8* %130, align 1
  %132 = sext i8 %131 to i32
  %133 = call i32 (i8*, ...) @printf(i8* getelementptr inbounds ([3 x i8], [3 x i8]* @.str, i64 0, i64 0), i32 %132)
  br label %134

134:                                              ; preds = %124
  %135 = load i32, i32* %6, align 4
  %136 = add nsw i32 %135, 1
  store i32 %136, i32* %6, align 4
  br label %109

137:                                              ; preds = %122
  %138 = call i32 (i8*, ...) @printf(i8* getelementptr inbounds ([2 x i8], [2 x i8]* @.str.1, i64 0, i64 0))
  store i32 0, i32* %6, align 4
  br label %139

139:                                              ; preds = %186, %137
  %140 = load i32, i32* %6, align 4
  %141 = icmp slt i32 %140, 101
  br i1 %141, label %142, label %152

142:                                              ; preds = %139
  %143 = load i32, i32* %8, align 4
  %144 = sext i32 %143 to i64
  %145 = getelementptr inbounds [100 x [101 x i8]], [100 x [101 x i8]]* %2, i64 0, i64 %144
  %146 = load i32, i32* %6, align 4
  %147 = sext i32 %146 to i64
  %148 = getelementptr inbounds [101 x i8], [101 x i8]* %145, i64 0, i64 %147
  %149 = load i8, i8* %148, align 1
  %150 = sext i8 %149 to i32
  %151 = icmp ne i32 %150, 0
  br label %152

152:                                              ; preds = %142, %139
  %153 = phi i1 [ false, %139 ], [ %151, %142 ]
  br i1 %153, label %154, label %189

154:                                              ; preds = %152
  %155 = load i32, i32* %8, align 4
  %156 = sext i32 %155 to i64
  %157 = getelementptr inbounds [100 x [101 x i8]], [100 x [101 x i8]]* %2, i64 0, i64 %156
  %158 = load i32, i32* %6, align 4
  %159 = sext i32 %158 to i64
  %160 = getelementptr inbounds [101 x i8], [101 x i8]* %157, i64 0, i64 %159
  %161 = load i8, i8* %160, align 1
  %162 = sext i8 %161 to i32
  %163 = load i8, i8* %4, align 1
  %164 = sext i8 %163 to i32
  %165 = icmp eq i32 %162, %164
  br i1 %165, label %166, label %168

166:                                              ; preds = %154
  %167 = call i32 (i8*, ...) @printf(i8* getelementptr inbounds ([2 x i8], [2 x i8]* @.str.2, i64 0, i64 0))
  br label %185

168:                                              ; preds = %154
  %169 = load i32, i32* %8, align 4
  %170 = sext i32 %169 to i64
  %171 = getelementptr inbounds [100 x [101 x i8]], [100 x [101 x i8]]* %2, i64 0, i64 %170
  %172 = load i32, i32* %6, align 4
  %173 = sext i32 %172 to i64
  %174 = getelementptr inbounds [101 x i8], [101 x i8]* %171, i64 0, i64 %173
  %175 = load i8, i8* %174, align 1
  %176 = sext i8 %175 to i32
  %177 = load i8, i8* %5, align 1
  %178 = sext i8 %177 to i32
  %179 = icmp eq i32 %176, %178
  br i1 %179, label %180, label %182

180:                                              ; preds = %168
  %181 = call i32 (i8*, ...) @printf(i8* getelementptr inbounds ([2 x i8], [2 x i8]* @.str.3, i64 0, i64 0))
  br label %184

182:                                              ; preds = %168
  %183 = call i32 (i8*, ...) @printf(i8* getelementptr inbounds ([2 x i8], [2 x i8]* @.str.4, i64 0, i64 0))
  br label %184

184:                                              ; preds = %182, %180
  br label %185

185:                                              ; preds = %184, %166
  br label %186

186:                                              ; preds = %185
  %187 = load i32, i32* %6, align 4
  %188 = add nsw i32 %187, 1
  store i32 %188, i32* %6, align 4
  br label %139

189:                                              ; preds = %152
  %190 = call i32 (i8*, ...) @printf(i8* getelementptr inbounds ([2 x i8], [2 x i8]* @.str.1, i64 0, i64 0))
  br label %191

191:                                              ; preds = %189
  %192 = load i32, i32* %8, align 4
  %193 = add nsw i32 %192, 1
  store i32 %193, i32* %8, align 4
  br label %9

194:                                              ; preds = %9
  ret i32 0
}

declare dso_local i32 @gets(...) #1

; Function Attrs: nounwind
declare dso_local i8* @strcpy(i8*, i8*) #2

declare dso_local i32 @printf(i8*, ...) #1


!llvm.module.flags = !{!0}
!llvm.ident = !{!1}

!0 = !{i32 1, !"wchar_size", i32 4}
!1 = !{!"clang version 10.0.0-4ubuntu1 "}
